target datalayout = "e-m:e-p270:32:32-p271:32:32-p272:64:64-i64:64-i128:128-f80:128-n8:16:32:64-S128"
target triple = "x86_64-pc-linux-gnu"

%"class.std::__cxx11::basic_string" = type { %"struct.std::__cxx11::basic_string<char>::_Alloc_hider", i64, %union.anon }
%"struct.std::__cxx11::basic_string<char>::_Alloc_hider" = type { ptr }
%union.anon = type { i64, [8 x i8] }
%class.cmListFileBacktrace = type { %class.cmConstStack }
%class.cmConstStack = type { %"class.std::shared_ptr" }
%"class.std::shared_ptr" = type { %"class.std::__shared_ptr" }
%"class.std::__shared_ptr" = type { ptr, %"class.std::__shared_count" }
%"class.std::__shared_count" = type { ptr }
%class.cmInstallTargetGenerator = type <{ %class.cmInstallGenerator, %"class.std::__cxx11::basic_string", ptr, %"class.std::__cxx11::basic_string", i32, i32, i8, i8, [6 x i8] }>
%class.cmInstallGenerator = type { %class.cmScriptGenerator.base, %"class.std::__cxx11::basic_string", %"class.std::__cxx11::basic_string", i32, i8, i8, %class.cmListFileBacktrace }
%class.cmScriptGenerator.base = type <{ ptr, %"class.std::__cxx11::basic_string", %"class.std::vector", %"class.std::__cxx11::basic_string", ptr, i8 }>
%"class.std::vector" = type { %"struct.std::_Vector_base" }
%"struct.std::_Vector_base" = type { %"struct.std::_Vector_base<std::__cxx11::basic_string<char>, std::allocator<std::__cxx11::basic_string<char>>>::_Vector_impl" }
%"struct.std::_Vector_base<std::__cxx11::basic_string<char>, std::allocator<std::__cxx11::basic_string<char>>>::_Vector_impl" = type { %"struct.std::_Vector_base<std::__cxx11::basic_string<char>, std::allocator<std::__cxx11::basic_string<char>>>::_Vector_impl_data" }
%"struct.std::_Vector_base<std::__cxx11::basic_string<char>, std::allocator<std::__cxx11::basic_string<char>>>::_Vector_impl_data" = type { ptr, ptr, ptr }

; Function Attrs: mustprogress uwtable
define dso_local void @_ZNK24cmInstallTargetGenerator18GetInstallFilenameERKNSt7__cxx1112basic_stringIcSt11char_traitsIcESaIcEEE(ptr dead_on_unwind noalias writable sret(%"class.std::__cxx11::basic_string") align 8 %0, ptr noundef nonnull align 8 dereferenceable(282) %1, ptr noundef nonnull align 8 dereferenceable(32) %2) #4 align 2 {
  %4 = alloca ptr, align 8
  %5 = alloca ptr, align 8
  %6 = alloca ptr, align 8
  %7 = alloca i32, align 4
  store ptr %0, ptr %4, align 8
  store ptr %1, ptr %5, align 8
  store ptr %2, ptr %6, align 8
  %8 = load ptr, ptr %5, align 8
  %9 = getelementptr inbounds %class.cmInstallTargetGenerator, ptr %8, i32 0, i32 6
  %10 = load i8, ptr %9, align 8
  %11 = trunc i8 %10 to i1
  %12 = select i1 %11, i32 1, i32 0
  store i32 %12, ptr %7, align 4
  %13 = getelementptr inbounds %class.cmInstallTargetGenerator, ptr %8, i32 0, i32 2
  %14 = load ptr, ptr %13, align 8
  %15 = load ptr, ptr %6, align 8
  %16 = load i32, ptr %7, align 4
  call void @_ZN24cmInstallTargetGenerator18GetInstallFilenameEPK17cmGeneratorTargetRKNSt7__cxx1112basic_stringIcSt11char_traitsIcESaIcEEENS_8NameTypeE(ptr dead_on_unwind writable sret(%"class.std::__cxx11::basic_string") align 8 %0, ptr noundef %14, ptr noundef nonnull align 8 dereferenceable(32) %15, i32 noundef %16)
  ret void
}