; Function Attrs: mustprogress uwtable
define dso_local void @_ZNK24cmInstallTargetGenerator18GetInstallFilenameERKNSt7__cxx1112basic_stringIcSt11char_traitsIcESaIcEEE(ptr dead_on_unwind noalias writable sret(%"class.std::__cxx11::basic_string") align 8 %0, ptr nocapture noundef nonnull readonly align 8 dereferenceable(282) %1, ptr noundef nonnull align 8 dereferenceable(32) %2) local_unnamed_addr #3 align 2 {
  %4 = getelementptr inbounds i8, ptr %1, i64 280
  %5 = load i8, ptr %4, align 8
  %6 = and i8 %5, 1
  %7 = zext nneg i8 %6 to i32
  %8 = getelementptr inbounds i8, ptr %1, i64 232
  %9 = load ptr, ptr %8, align 8
  tail call void @_ZN24cmInstallTargetGenerator18GetInstallFilenameEPK17cmGeneratorTargetRKNSt7__cxx1112basic_stringIcSt11char_traitsIcESaIcEEENS_8NameTypeE(ptr dead_on_unwind writable sret(%"class.std::__cxx11::basic_string") align 8 %0, ptr noundef %9, ptr noundef nonnull align 8 dereferenceable(32) %2, i32 noundef %7)
  ret void
}